target datalayout = "e-m:e-p270:32:32-p271:32:32-p272:64:64-i64:64-i128:128-f80:128-n8:16:32:64-S128"
target triple = "x86_64-pc-linux-gnu"

%struct.ct_data_s = type { %union.anon, %union.anon.0 }
%union.anon = type { i16 }
%union.anon.0 = type { i16 }
%struct.internal_state = type { ptr, i32, ptr, i64, ptr, i32, i32, ptr, i32, i8, i32, i32, i32, i32, ptr, i64, ptr, ptr, i32, i32, i32, i32, i32, i64, i32, i32, i32, i32, i32, i32, i32, i32, i32, i32, i32, i32, i32, [573 x %struct.ct_data_s], [61 x %struct.ct_data_s], [39 x %struct.ct_data_s], %struct.tree_desc_s, %struct.tree_desc_s, %struct.tree_desc_s, [16 x i16], [573 x i32], i32, i32, [573 x i8], ptr, i32, i32, ptr, i64, i64, i32, i32, i16, i32, i64 }
%struct.tree_desc_s = type { ptr, i32, ptr }

; Function Attrs: nounwind uwtable
define internal void @bi_windup(ptr noundef %0) #0 {
  %2 = alloca ptr, align 8
  store ptr %0, ptr %2, align 8, !tbaa !3
  %3 = load ptr, ptr %2, align 8, !tbaa !3
  %4 = getelementptr inbounds nuw %struct.internal_state, ptr %3, i32 0, i32 57
  %5 = load i32, ptr %4, align 4, !tbaa !26
  %6 = icmp sgt i32 %5, 8
  br i1 %6, label %7, label %38

7:                                                ; preds = %1
  %8 = load ptr, ptr %2, align 8, !tbaa !3
  %9 = getelementptr inbounds nuw %struct.internal_state, ptr %8, i32 0, i32 56
  %10 = load i16, ptr %9, align 8, !tbaa !25
  %11 = zext i16 %10 to i32
  %12 = and i32 %11, 255
  %13 = trunc i32 %12 to i8
  %14 = load ptr, ptr %2, align 8, !tbaa !3
  %15 = getelementptr inbounds nuw %struct.internal_state, ptr %14, i32 0, i32 2
  %16 = load ptr, ptr %15, align 8, !tbaa !40
  %17 = load ptr, ptr %2, align 8, !tbaa !3
  %18 = getelementptr inbounds nuw %struct.internal_state, ptr %17, i32 0, i32 5
  %19 = load i32, ptr %18, align 8, !tbaa !41
  %20 = add i32 %19, 1
  store i32 %20, ptr %18, align 8, !tbaa !41
  %21 = zext i32 %19 to i64
  %22 = getelementptr inbounds nuw i8, ptr %16, i64 %21
  store i8 %13, ptr %22, align 1, !tbaa !29
  %23 = load ptr, ptr %2, align 8, !tbaa !3
  %24 = getelementptr inbounds nuw %struct.internal_state, ptr %23, i32 0, i32 56
  %25 = load i16, ptr %24, align 8, !tbaa !25
  %26 = zext i16 %25 to i32
  %27 = ashr i32 %26, 8
  %28 = trunc i32 %27 to i8
  %29 = load ptr, ptr %2, align 8, !tbaa !3
  %30 = getelementptr inbounds nuw %struct.internal_state, ptr %29, i32 0, i32 2
  %31 = load ptr, ptr %30, align 8, !tbaa !40
  %32 = load ptr, ptr %2, align 8, !tbaa !3
  %33 = getelementptr inbounds nuw %struct.internal_state, ptr %32, i32 0, i32 5
  %34 = load i32, ptr %33, align 8, !tbaa !41
  %35 = add i32 %34, 1
  store i32 %35, ptr %33, align 8, !tbaa !41
  %36 = zext i32 %34 to i64
  %37 = getelementptr inbounds nuw i8, ptr %31, i64 %36
  store i8 %28, ptr %37, align 1, !tbaa !29
  br label %58

38:                                               ; preds = %1
  %39 = load ptr, ptr %2, align 8, !tbaa !3
  %40 = getelementptr inbounds nuw %struct.internal_state, ptr %39, i32 0, i32 57
  %41 = load i32, ptr %40, align 4, !tbaa !26
  %42 = icmp sgt i32 %41, 0
  br i1 %42, label %43, label %57

43:                                               ; preds = %38
  %44 = load ptr, ptr %2, align 8, !tbaa !3
  %45 = getelementptr inbounds nuw %struct.internal_state, ptr %44, i32 0, i32 56
  %46 = load i16, ptr %45, align 8, !tbaa !25
  %47 = trunc i16 %46 to i8
  %48 = load ptr, ptr %2, align 8, !tbaa !3
  %49 = getelementptr inbounds nuw %struct.internal_state, ptr %48, i32 0, i32 2
  %50 = load ptr, ptr %49, align 8, !tbaa !40
  %51 = load ptr, ptr %2, align 8, !tbaa !3
  %52 = getelementptr inbounds nuw %struct.internal_state, ptr %51, i32 0, i32 5
  %53 = load i32, ptr %52, align 8, !tbaa !41
  %54 = add i32 %53, 1
  store i32 %54, ptr %52, align 8, !tbaa !41
  %55 = zext i32 %53 to i64
  %56 = getelementptr inbounds nuw i8, ptr %50, i64 %55
  store i8 %47, ptr %56, align 1, !tbaa !29
  br label %57

57:                                               ; preds = %43, %38
  br label %58

58:                                               ; preds = %57, %7
  %59 = load ptr, ptr %2, align 8, !tbaa !3
  %60 = getelementptr inbounds nuw %struct.internal_state, ptr %59, i32 0, i32 56
  store i16 0, ptr %60, align 8, !tbaa !25
  %61 = load ptr, ptr %2, align 8, !tbaa !3
  %62 = getelementptr inbounds nuw %struct.internal_state, ptr %61, i32 0, i32 57
  store i32 0, ptr %62, align 4, !tbaa !26
  ret void
}

; Function Attrs: nounwind uwtable
define internal void @copy_block(ptr noundef %0, ptr noundef %1, i32 noundef %2, i32 noundef %3) #0 {
  %5 = alloca ptr, align 8
  %6 = alloca ptr, align 8
  %7 = alloca i32, align 4
  %8 = alloca i32, align 4
  store ptr %0, ptr %5, align 8, !tbaa !3
  store ptr %1, ptr %6, align 8, !tbaa !38
  store i32 %2, ptr %7, align 4, !tbaa !28
  store i32 %3, ptr %8, align 4, !tbaa !28
  %9 = load ptr, ptr %5, align 8, !tbaa !3
  call void @bi_windup(ptr noundef %9)
  %10 = load ptr, ptr %5, align 8, !tbaa !3
  %11 = getelementptr inbounds nuw %struct.internal_state, ptr %10, i32 0, i32 55
  store i32 8, ptr %11, align 4, !tbaa !27
  %12 = load i32, ptr %8, align 4, !tbaa !28
  %13 = icmp ne i32 %12, 0
  br i1 %13, label %14, label %73

14:                                               ; preds = %4
  %15 = load i32, ptr %7, align 4, !tbaa !28
  %16 = trunc i32 %15 to i16
  %17 = zext i16 %16 to i32
  %18 = and i32 %17, 255
  %19 = trunc i32 %18 to i8
  %20 = load ptr, ptr %5, align 8, !tbaa !3
  %21 = getelementptr inbounds nuw %struct.internal_state, ptr %20, i32 0, i32 2
  %22 = load ptr, ptr %21, align 8, !tbaa !40
  %23 = load ptr, ptr %5, align 8, !tbaa !3
  %24 = getelementptr inbounds nuw %struct.internal_state, ptr %23, i32 0, i32 5
  %25 = load i32, ptr %24, align 8, !tbaa !41
  %26 = add i32 %25, 1
  store i32 %26, ptr %24, align 8, !tbaa !41
  %27 = zext i32 %25 to i64
  %28 = getelementptr inbounds nuw i8, ptr %22, i64 %27
  store i8 %19, ptr %28, align 1, !tbaa !29
  %29 = load i32, ptr %7, align 4, !tbaa !28
  %30 = trunc i32 %29 to i16
  %31 = zext i16 %30 to i32
  %32 = ashr i32 %31, 8
  %33 = trunc i32 %32 to i8
  %34 = load ptr, ptr %5, align 8, !tbaa !3
  %35 = getelementptr inbounds nuw %struct.internal_state, ptr %34, i32 0, i32 2
  %36 = load ptr, ptr %35, align 8, !tbaa !40
  %37 = load ptr, ptr %5, align 8, !tbaa !3
  %38 = getelementptr inbounds nuw %struct.internal_state, ptr %37, i32 0, i32 5
  %39 = load i32, ptr %38, align 8, !tbaa !41
  %40 = add i32 %39, 1
  store i32 %40, ptr %38, align 8, !tbaa !41
  %41 = zext i32 %39 to i64
  %42 = getelementptr inbounds nuw i8, ptr %36, i64 %41
  store i8 %33, ptr %42, align 1, !tbaa !29
  %43 = load i32, ptr %7, align 4, !tbaa !28
  %44 = xor i32 %43, -1
  %45 = trunc i32 %44 to i16
  %46 = zext i16 %45 to i32
  %47 = and i32 %46, 255
  %48 = trunc i32 %47 to i8
  %49 = load ptr, ptr %5, align 8, !tbaa !3
  %50 = getelementptr inbounds nuw %struct.internal_state, ptr %49, i32 0, i32 2
  %51 = load ptr, ptr %50, align 8, !tbaa !40
  %52 = load ptr, ptr %5, align 8, !tbaa !3
  %53 = getelementptr inbounds nuw %struct.internal_state, ptr %52, i32 0, i32 5
  %54 = load i32, ptr %53, align 8, !tbaa !41
  %55 = add i32 %54, 1
  store i32 %55, ptr %53, align 8, !tbaa !41
  %56 = zext i32 %54 to i64
  %57 = getelementptr inbounds nuw i8, ptr %51, i64 %56
  store i8 %48, ptr %57, align 1, !tbaa !29
  %58 = load i32, ptr %7, align 4, !tbaa !28
  %59 = xor i32 %58, -1
  %60 = trunc i32 %59 to i16
  %61 = zext i16 %60 to i32
  %62 = ashr i32 %61, 8
  %63 = trunc i32 %62 to i8
  %64 = load ptr, ptr %5, align 8, !tbaa !3
  %65 = getelementptr inbounds nuw %struct.internal_state, ptr %64, i32 0, i32 2
  %66 = load ptr, ptr %65, align 8, !tbaa !40
  %67 = load ptr, ptr %5, align 8, !tbaa !3
  %68 = getelementptr inbounds nuw %struct.internal_state, ptr %67, i32 0, i32 5
  %69 = load i32, ptr %68, align 8, !tbaa !41
  %70 = add i32 %69, 1
  store i32 %70, ptr %68, align 8, !tbaa !41
  %71 = zext i32 %69 to i64
  %72 = getelementptr inbounds nuw i8, ptr %66, i64 %71
  store i8 %63, ptr %72, align 1, !tbaa !29
  br label %73

73:                                               ; preds = %14, %4
  br label %74

74:                                               ; preds = %78, %73
  %75 = load i32, ptr %7, align 4, !tbaa !28
  %76 = add i32 %75, -1
  store i32 %76, ptr %7, align 4, !tbaa !28
  %77 = icmp ne i32 %75, 0
  br i1 %77, label %78, label %91

78:                                               ; preds = %74
  %79 = load ptr, ptr %6, align 8, !tbaa !38
  %80 = getelementptr inbounds nuw i8, ptr %79, i32 1
  store ptr %80, ptr %6, align 8, !tbaa !38
  %81 = load i8, ptr %79, align 1, !tbaa !29
  %82 = load ptr, ptr %5, align 8, !tbaa !3
  %83 = getelementptr inbounds nuw %struct.internal_state, ptr %82, i32 0, i32 2
  %84 = load ptr, ptr %83, align 8, !tbaa !40
  %85 = load ptr, ptr %5, align 8, !tbaa !3
  %86 = getelementptr inbounds nuw %struct.internal_state, ptr %85, i32 0, i32 5
  %87 = load i32, ptr %86, align 8, !tbaa !41
  %88 = add i32 %87, 1
  store i32 %88, ptr %86, align 8, !tbaa !41
  %89 = zext i32 %87 to i64
  %90 = getelementptr inbounds nuw i8, ptr %84, i64 %89
  store i8 %81, ptr %90, align 1, !tbaa !29
  br label %74, !llvm.loop !42

91:                                               ; preds = %74
  ret void
}

; Function Attrs: nounwind uwtable
define hidden void @_tr_stored_block(ptr noundef %0, ptr noundef %1, i64 noundef %2, i32 noundef %3) #0 {
  %5 = alloca ptr, align 8
  %6 = alloca ptr, align 8
  %7 = alloca i64, align 8
  %8 = alloca i32, align 4
  %9 = alloca i32, align 4
  %10 = alloca i32, align 4
  store ptr %0, ptr %5, align 8, !tbaa !3
  store ptr %1, ptr %6, align 8, !tbaa !38
  store i64 %2, ptr %7, align 8, !tbaa !39
  store i32 %3, ptr %8, align 4, !tbaa !28
  call void @llvm.lifetime.start.p0(i64 4, ptr %9) #2
  store i32 3, ptr %9, align 4, !tbaa !28
  %11 = load ptr, ptr %5, align 8, !tbaa !3
  %12 = getelementptr inbounds nuw %struct.internal_state, ptr %11, i32 0, i32 57
  %13 = load i32, ptr %12, align 4, !tbaa !26
  %14 = load i32, ptr %9, align 4, !tbaa !28
  %15 = sub nsw i32 16, %14
  %16 = icmp sgt i32 %13, %15
  br i1 %16, label %17, label %85

17:                                               ; preds = %4
  call void @llvm.lifetime.start.p0(i64 4, ptr %10) #2
  %18 = load i32, ptr %8, align 4, !tbaa !28
  %19 = add nsw i32 0, %18
  store i32 %19, ptr %10, align 4, !tbaa !28
  %20 = load i32, ptr %10, align 4, !tbaa !28
  %21 = trunc i32 %20 to i16
  %22 = zext i16 %21 to i32
  %23 = load ptr, ptr %5, align 8, !tbaa !3
  %24 = getelementptr inbounds nuw %struct.internal_state, ptr %23, i32 0, i32 57
  %25 = load i32, ptr %24, align 4, !tbaa !26
  %26 = shl i32 %22, %25
  %27 = load ptr, ptr %5, align 8, !tbaa !3
  %28 = getelementptr inbounds nuw %struct.internal_state, ptr %27, i32 0, i32 56
  %29 = load i16, ptr %28, align 8, !tbaa !25
  %30 = zext i16 %29 to i32
  %31 = or i32 %30, %26
  %32 = trunc i32 %31 to i16
  store i16 %32, ptr %28, align 8, !tbaa !25
  %33 = load ptr, ptr %5, align 8, !tbaa !3
  %34 = getelementptr inbounds nuw %struct.internal_state, ptr %33, i32 0, i32 56
  %35 = load i16, ptr %34, align 8, !tbaa !25
  %36 = zext i16 %35 to i32
  %37 = and i32 %36, 255
  %38 = trunc i32 %37 to i8
  %39 = load ptr, ptr %5, align 8, !tbaa !3
  %40 = getelementptr inbounds nuw %struct.internal_state, ptr %39, i32 0, i32 2
  %41 = load ptr, ptr %40, align 8, !tbaa !40
  %42 = load ptr, ptr %5, align 8, !tbaa !3
  %43 = getelementptr inbounds nuw %struct.internal_state, ptr %42, i32 0, i32 5
  %44 = load i32, ptr %43, align 8, !tbaa !41
  %45 = add i32 %44, 1
  store i32 %45, ptr %43, align 8, !tbaa !41
  %46 = zext i32 %44 to i64
  %47 = getelementptr inbounds nuw i8, ptr %41, i64 %46
  store i8 %38, ptr %47, align 1, !tbaa !29
  %48 = load ptr, ptr %5, align 8, !tbaa !3
  %49 = getelementptr inbounds nuw %struct.internal_state, ptr %48, i32 0, i32 56
  %50 = load i16, ptr %49, align 8, !tbaa !25
  %51 = zext i16 %50 to i32
  %52 = ashr i32 %51, 8
  %53 = trunc i32 %52 to i8
  %54 = load ptr, ptr %5, align 8, !tbaa !3
  %55 = getelementptr inbounds nuw %struct.internal_state, ptr %54, i32 0, i32 2
  %56 = load ptr, ptr %55, align 8, !tbaa !40
  %57 = load ptr, ptr %5, align 8, !tbaa !3
  %58 = getelementptr inbounds nuw %struct.internal_state, ptr %57, i32 0, i32 5
  %59 = load i32, ptr %58, align 8, !tbaa !41
  %60 = add i32 %59, 1
  store i32 %60, ptr %58, align 8, !tbaa !41
  %61 = zext i32 %59 to i64
  %62 = getelementptr inbounds nuw i8, ptr %56, i64 %61
  store i8 %53, ptr %62, align 1, !tbaa !29
  %63 = load i32, ptr %10, align 4, !tbaa !28
  %64 = trunc i32 %63 to i16
  %65 = zext i16 %64 to i32
  %66 = load ptr, ptr %5, align 8, !tbaa !3
  %67 = getelementptr inbounds nuw %struct.internal_state, ptr %66, i32 0, i32 57
  %68 = load i32, ptr %67, align 4, !tbaa !26
  %69 = sext i32 %68 to i64
  %70 = sub i64 16, %69
  %71 = trunc i64 %70 to i32
  %72 = ashr i32 %65, %71
  %73 = trunc i32 %72 to i16
  %74 = load ptr, ptr %5, align 8, !tbaa !3
  %75 = getelementptr inbounds nuw %struct.internal_state, ptr %74, i32 0, i32 56
  store i16 %73, ptr %75, align 8, !tbaa !25
  %76 = load i32, ptr %9, align 4, !tbaa !28
  %77 = sext i32 %76 to i64
  %78 = sub i64 %77, 16
  %79 = load ptr, ptr %5, align 8, !tbaa !3
  %80 = getelementptr inbounds nuw %struct.internal_state, ptr %79, i32 0, i32 57
  %81 = load i32, ptr %80, align 4, !tbaa !26
  %82 = sext i32 %81 to i64
  %83 = add i64 %82, %78
  %84 = trunc i64 %83 to i32
  store i32 %84, ptr %80, align 4, !tbaa !26
  call void @llvm.lifetime.end.p0(i64 4, ptr %10) #2
  br label %105

85:                                               ; preds = %4
  %86 = load i32, ptr %8, align 4, !tbaa !28
  %87 = add nsw i32 0, %86
  %88 = trunc i32 %87 to i16
  %89 = zext i16 %88 to i32
  %90 = load ptr, ptr %5, align 8, !tbaa !3
  %91 = getelementptr inbounds nuw %struct.internal_state, ptr %90, i32 0, i32 57
  %92 = load i32, ptr %91, align 4, !tbaa !26
  %93 = shl i32 %89, %92
  %94 = load ptr, ptr %5, align 8, !tbaa !3
  %95 = getelementptr inbounds nuw %struct.internal_state, ptr %94, i32 0, i32 56
  %96 = load i16, ptr %95, align 8, !tbaa !25
  %97 = zext i16 %96 to i32
  %98 = or i32 %97, %93
  %99 = trunc i32 %98 to i16
  store i16 %99, ptr %95, align 8, !tbaa !25
  %100 = load i32, ptr %9, align 4, !tbaa !28
  %101 = load ptr, ptr %5, align 8, !tbaa !3
  %102 = getelementptr inbounds nuw %struct.internal_state, ptr %101, i32 0, i32 57
  %103 = load i32, ptr %102, align 4, !tbaa !26
  %104 = add nsw i32 %103, %100
  store i32 %104, ptr %102, align 4, !tbaa !26
  br label %105

105:                                              ; preds = %85, %17
  call void @llvm.lifetime.end.p0(i64 4, ptr %9) #2
  %106 = load ptr, ptr %5, align 8, !tbaa !3
  %107 = load ptr, ptr %6, align 8, !tbaa !38
  %108 = load i64, ptr %7, align 8, !tbaa !39
  %109 = trunc i64 %108 to i32
  call void @copy_block(ptr noundef %106, ptr noundef %107, i32 noundef %109, i32 noundef 1)
  ret void
}