; Function Attrs: nofree norecurse nosync nounwind memory(write, argmem: readwrite, inaccessiblemem: none) uwtable
define hidden void @_tr_stored_block(ptr noundef captures(none) initializes((5916, 5920)) %0, ptr noundef readonly captures(none) %1, i64 noundef %2, i32 noundef %3) local_unnamed_addr #1 {
  %5 = getelementptr inbounds nuw i8, ptr %0, i64 5924
  %6 = load i32, ptr %5, align 4, !tbaa !24
  %7 = icmp sgt i32 %6, 13
  br i1 %7, label %8, label %36

8:                                                ; preds = %4
  %9 = and i32 %3, 65535
  %10 = shl i32 %3, %6
  %11 = getelementptr inbounds nuw i8, ptr %0, i64 5920
  %12 = load i16, ptr %11, align 8, !tbaa !23
  %13 = trunc i32 %10 to i16
  %14 = or i16 %12, %13
  store i16 %14, ptr %11, align 8, !tbaa !23
  %15 = trunc i16 %14 to i8
  %16 = getelementptr inbounds nuw i8, ptr %0, i64 16
  %17 = load ptr, ptr %16, align 8, !tbaa !32
  %18 = getelementptr inbounds nuw i8, ptr %0, i64 40
  %19 = load i32, ptr %18, align 8, !tbaa !33
  %20 = add i32 %19, 1
  store i32 %20, ptr %18, align 8, !tbaa !33
  %21 = zext i32 %19 to i64
  %22 = getelementptr inbounds nuw i8, ptr %17, i64 %21
  store i8 %15, ptr %22, align 1, !tbaa !26
  %23 = load i16, ptr %11, align 8, !tbaa !23
  %24 = lshr i16 %23, 8
  %25 = trunc nuw i16 %24 to i8
  %26 = load ptr, ptr %16, align 8, !tbaa !32
  %27 = load i32, ptr %18, align 8, !tbaa !33
  %28 = add i32 %27, 1
  store i32 %28, ptr %18, align 8, !tbaa !33
  %29 = zext i32 %27 to i64
  %30 = getelementptr inbounds nuw i8, ptr %26, i64 %29
  store i8 %25, ptr %30, align 1, !tbaa !26
  %31 = load i32, ptr %5, align 4, !tbaa !24
  %32 = sub i32 16, %31
  %33 = lshr i32 %9, %32
  %34 = trunc nuw i32 %33 to i16
  store i16 %34, ptr %11, align 8, !tbaa !23
  %35 = add i32 %31, -13
  br label %43

36:                                               ; preds = %4
  %37 = shl i32 %3, %6
  %38 = getelementptr inbounds nuw i8, ptr %0, i64 5920
  %39 = load i16, ptr %38, align 8, !tbaa !23
  %40 = trunc i32 %37 to i16
  %41 = or i16 %39, %40
  store i16 %41, ptr %38, align 8, !tbaa !23
  %42 = add nsw i32 %6, 3
  br label %43

43:                                               ; preds = %36, %8
  %44 = phi i16 [ %41, %36 ], [ %34, %8 ]
  %storemerge = phi i32 [ %42, %36 ], [ %35, %8 ]
  %45 = trunc i64 %2 to i32
  %46 = icmp sgt i32 %storemerge, 8
  br i1 %46, label %47, label %62

47:                                               ; preds = %43
  %48 = getelementptr inbounds nuw i8, ptr %0, i64 5920
  %49 = trunc i16 %44 to i8
  %50 = getelementptr inbounds nuw i8, ptr %0, i64 16
  %51 = load ptr, ptr %50, align 8, !tbaa !32
  %52 = getelementptr inbounds nuw i8, ptr %0, i64 40
  %53 = load i32, ptr %52, align 8, !tbaa !33
  %54 = add i32 %53, 1
  store i32 %54, ptr %52, align 8, !tbaa !33
  %55 = zext i32 %53 to i64
  %56 = getelementptr inbounds nuw i8, ptr %51, i64 %55
  store i8 %49, ptr %56, align 1, !tbaa !26
  %57 = load i16, ptr %48, align 8, !tbaa !23
  %58 = lshr i16 %57, 8
  %59 = load ptr, ptr %50, align 8, !tbaa !32
  %60 = load i32, ptr %52, align 8, !tbaa !33
  %61 = add i32 %60, 1
  store i32 %61, ptr %52, align 8, !tbaa !33
  br label %.sink.split.i.i

62:                                               ; preds = %43
  %63 = icmp sgt i32 %storemerge, 0
  br i1 %63, label %64, label %bi_windup.exit.i

64:                                               ; preds = %62
  %65 = getelementptr inbounds nuw i8, ptr %0, i64 16
  %66 = load ptr, ptr %65, align 8, !tbaa !32
  %67 = getelementptr inbounds nuw i8, ptr %0, i64 40
  %68 = load i32, ptr %67, align 8, !tbaa !33
  %69 = add i32 %68, 1
  store i32 %69, ptr %67, align 8, !tbaa !33
  br label %.sink.split.i.i

.sink.split.i.i:                                  ; preds = %64, %47
  %.sink16.i.i = phi i32 [ %68, %64 ], [ %60, %47 ]
  %.sink14.i.i = phi ptr [ %66, %64 ], [ %59, %47 ]
  %.sink.in.i.i = phi i16 [ %44, %64 ], [ %58, %47 ]
  %.sink.i.i = trunc i16 %.sink.in.i.i to i8
  %70 = zext i32 %.sink16.i.i to i64
  %71 = getelementptr inbounds nuw i8, ptr %.sink14.i.i, i64 %70
  store i8 %.sink.i.i, ptr %71, align 1, !tbaa !26
  br label %bi_windup.exit.i

bi_windup.exit.i:                                 ; preds = %.sink.split.i.i, %62
  %72 = getelementptr inbounds nuw i8, ptr %0, i64 5920
  store i16 0, ptr %72, align 8, !tbaa !23
  store i32 0, ptr %5, align 4, !tbaa !24
  %73 = getelementptr inbounds nuw i8, ptr %0, i64 5916
  store i32 8, ptr %73, align 4, !tbaa !25
  %74 = trunc i64 %2 to i8
  %75 = getelementptr inbounds nuw i8, ptr %0, i64 16
  %76 = load ptr, ptr %75, align 8, !tbaa !32
  %77 = getelementptr inbounds nuw i8, ptr %0, i64 40
  %78 = load i32, ptr %77, align 8, !tbaa !33
  %79 = add i32 %78, 1
  store i32 %79, ptr %77, align 8, !tbaa !33
  %80 = zext i32 %78 to i64
  %81 = getelementptr inbounds nuw i8, ptr %76, i64 %80
  store i8 %74, ptr %81, align 1, !tbaa !26
  %82 = lshr i64 %2, 8
  %83 = trunc i64 %82 to i8
  %84 = load ptr, ptr %75, align 8, !tbaa !32
  %85 = load i32, ptr %77, align 8, !tbaa !33
  %86 = add i32 %85, 1
  store i32 %86, ptr %77, align 8, !tbaa !33
  %87 = zext i32 %85 to i64
  %88 = getelementptr inbounds nuw i8, ptr %84, i64 %87
  store i8 %83, ptr %88, align 1, !tbaa !26
  %89 = xor i32 %45, 65535
  %90 = trunc i32 %89 to i8
  %91 = load ptr, ptr %75, align 8, !tbaa !32
  %92 = load i32, ptr %77, align 8, !tbaa !33
  %93 = add i32 %92, 1
  store i32 %93, ptr %77, align 8, !tbaa !33
  %94 = zext i32 %92 to i64
  %95 = getelementptr inbounds nuw i8, ptr %91, i64 %94
  store i8 %90, ptr %95, align 1, !tbaa !26
  %96 = lshr i32 %89, 8
  %97 = trunc i32 %96 to i8
  %98 = load ptr, ptr %75, align 8, !tbaa !32
  %99 = load i32, ptr %77, align 8, !tbaa !33
  %100 = add i32 %99, 1
  store i32 %100, ptr %77, align 8, !tbaa !33
  %101 = zext i32 %99 to i64
  %102 = getelementptr inbounds nuw i8, ptr %98, i64 %101
  store i8 %97, ptr %102, align 1, !tbaa !26
  %.not19.i = icmp eq i32 %45, 0
  br i1 %.not19.i, label %copy_block.exit, label %.lr.ph.i

.lr.ph.i:                                         ; preds = %bi_windup.exit.i, %.lr.ph.i
  %.021.i = phi ptr [ %104, %.lr.ph.i ], [ %1, %bi_windup.exit.i ]
  %.01820.i = phi i32 [ %103, %.lr.ph.i ], [ %45, %bi_windup.exit.i ]
  %103 = add i32 %.01820.i, -1
  %104 = getelementptr inbounds nuw i8, ptr %.021.i, i64 1
  %105 = load i8, ptr %.021.i, align 1, !tbaa !26
  %106 = load ptr, ptr %75, align 8, !tbaa !32
  %107 = load i32, ptr %77, align 8, !tbaa !33
  %108 = add i32 %107, 1
  store i32 %108, ptr %77, align 8, !tbaa !33
  %109 = zext i32 %107 to i64
  %110 = getelementptr inbounds nuw i8, ptr %106, i64 %109
  store i8 %105, ptr %110, align 1, !tbaa !26
  %.not.i = icmp eq i32 %103, 0
  br i1 %.not.i, label %copy_block.exit, label %.lr.ph.i, !llvm.loop !34

copy_block.exit:                                  ; preds = %.lr.ph.i, %bi_windup.exit.i
  ret void
}